target datalayout = "e-m:e-p270:32:32-p271:32:32-p272:64:64-i64:64-i128:128-f80:128-n8:16:32:64-S128"
target triple = "x86_64-pc-linux-gnu"

%struct._sctpstat_t = type { ptr, i32, ptr }
%struct.sctp_ep = type { ptr, %struct._address, %struct._address, i16, i16, [256 x i32] }
%struct._address = type { i32, i32, ptr, ptr }

@.str.5 = private unnamed_addr constant [137 x i8] c"-------------------------------------------- SCTP Statistics --------------------------------------------------------------------------\0A\00", align 1
@.str.6 = private unnamed_addr constant [27 x i8] c"|  Total packets RX/TX %u\0A\00", align 1
@.str.7 = private unnamed_addr constant [137 x i8] c"---------------------------------------------------------------------------------------------------------------------------------------\0A\00", align 1
@.str.8 = private unnamed_addr constant [137 x i8] c"|   Source IP   |PortA|    Dest. IP   |PortB|  DATA  |  SACK  |  HBEAT |HBEATACK|  INIT  | INITACK| COOKIE |COOKIACK| ABORT  |  ERROR |\0A\00", align 1
@.str.9 = private unnamed_addr constant [61 x i8] c"|%15s|%5u|%15s|%5u|%8u|%8u|%8u|%8u|%8u|%8u|%8u|%8u|%8u|%8u|\0A\00", align 1

; Function Attrs: null_pointer_is_valid sspstrong uwtable
define internal void @sctpstat_draw(ptr noundef %0) #0 {
  %2 = alloca ptr, align 8
  %3 = alloca ptr, align 8
  %4 = alloca ptr, align 8
  %5 = alloca ptr, align 8
  %6 = alloca ptr, align 8
  %7 = alloca ptr, align 8
  store ptr %0, ptr %2, align 8
  call void @llvm.lifetime.start.p0(i64 8, ptr %3) #12
  %8 = load ptr, ptr %2, align 8
  store ptr %8, ptr %3, align 8
  call void @llvm.lifetime.start.p0(i64 8, ptr %4) #12
  %9 = load ptr, ptr %3, align 8
  %10 = getelementptr inbounds nuw %struct._sctpstat_t, ptr %9, i32 0, i32 2
  %11 = load ptr, ptr %10, align 8
  store ptr %11, ptr %4, align 8
  call void @llvm.lifetime.start.p0(i64 8, ptr %5) #12
  call void @llvm.lifetime.start.p0(i64 8, ptr %6) #12
  call void @llvm.lifetime.start.p0(i64 8, ptr %7) #12
  %12 = call i32 (i32, ptr, ...) @__printf_chk(i32 noundef 2, ptr noundef @.str.5)
  %13 = load ptr, ptr %3, align 8
  %14 = getelementptr inbounds nuw %struct._sctpstat_t, ptr %13, i32 0, i32 1
  %15 = load i32, ptr %14, align 8
  %16 = call i32 (i32, ptr, ...) @__printf_chk(i32 noundef 2, ptr noundef @.str.6, i32 noundef %15)
  %17 = call i32 (i32, ptr, ...) @__printf_chk(i32 noundef 2, ptr noundef @.str.7)
  %18 = call i32 (i32, ptr, ...) @__printf_chk(i32 noundef 2, ptr noundef @.str.8)
  %19 = call i32 (i32, ptr, ...) @__printf_chk(i32 noundef 2, ptr noundef @.str.7)
  %20 = load ptr, ptr %4, align 8
  store ptr %20, ptr %5, align 8
  br label %21

21:                                               ; preds = %84, %1
  %22 = load ptr, ptr %5, align 8
  %23 = icmp ne ptr %22, null
  br i1 %23, label %24, label %88

24:                                               ; preds = %21
  %25 = load ptr, ptr %5, align 8
  %26 = getelementptr inbounds nuw %struct.sctp_ep, ptr %25, i32 0, i32 1
  %27 = call ptr @address_to_str(ptr noundef null, ptr noundef %26)
  store ptr %27, ptr %6, align 8
  %28 = load ptr, ptr %5, align 8
  %29 = getelementptr inbounds nuw %struct.sctp_ep, ptr %28, i32 0, i32 2
  %30 = call ptr @address_to_str(ptr noundef null, ptr noundef %29)
  store ptr %30, ptr %7, align 8
  %31 = load ptr, ptr %6, align 8
  %32 = load ptr, ptr %5, align 8
  %33 = getelementptr inbounds nuw %struct.sctp_ep, ptr %32, i32 0, i32 3
  %34 = load i16, ptr %33, align 8
  %35 = zext i16 %34 to i32
  %36 = load ptr, ptr %7, align 8
  %37 = load ptr, ptr %5, align 8
  %38 = getelementptr inbounds nuw %struct.sctp_ep, ptr %37, i32 0, i32 4
  %39 = load i16, ptr %38, align 2
  %40 = zext i16 %39 to i32
  %41 = load ptr, ptr %5, align 8
  %42 = getelementptr inbounds nuw %struct.sctp_ep, ptr %41, i32 0, i32 5
  %43 = getelementptr [256 x i32], ptr %42, i64 0, i64 0
  %44 = load i32, ptr %43, align 4
  %45 = load ptr, ptr %5, align 8
  %46 = getelementptr inbounds nuw %struct.sctp_ep, ptr %45, i32 0, i32 5
  %47 = getelementptr [256 x i32], ptr %46, i64 0, i64 3
  %48 = load i32, ptr %47, align 4
  %49 = load ptr, ptr %5, align 8
  %50 = getelementptr inbounds nuw %struct.sctp_ep, ptr %49, i32 0, i32 5
  %51 = getelementptr [256 x i32], ptr %50, i64 0, i64 4
  %52 = load i32, ptr %51, align 4
  %53 = load ptr, ptr %5, align 8
  %54 = getelementptr inbounds nuw %struct.sctp_ep, ptr %53, i32 0, i32 5
  %55 = getelementptr [256 x i32], ptr %54, i64 0, i64 5
  %56 = load i32, ptr %55, align 4
  %57 = load ptr, ptr %5, align 8
  %58 = getelementptr inbounds nuw %struct.sctp_ep, ptr %57, i32 0, i32 5
  %59 = getelementptr [256 x i32], ptr %58, i64 0, i64 1
  %60 = load i32, ptr %59, align 4
  %61 = load ptr, ptr %5, align 8
  %62 = getelementptr inbounds nuw %struct.sctp_ep, ptr %61, i32 0, i32 5
  %63 = getelementptr [256 x i32], ptr %62, i64 0, i64 2
  %64 = load i32, ptr %63, align 4
  %65 = load ptr, ptr %5, align 8
  %66 = getelementptr inbounds nuw %struct.sctp_ep, ptr %65, i32 0, i32 5
  %67 = getelementptr [256 x i32], ptr %66, i64 0, i64 10
  %68 = load i32, ptr %67, align 4
  %69 = load ptr, ptr %5, align 8
  %70 = getelementptr inbounds nuw %struct.sctp_ep, ptr %69, i32 0, i32 5
  %71 = getelementptr [256 x i32], ptr %70, i64 0, i64 11
  %72 = load i32, ptr %71, align 4
  %73 = load ptr, ptr %5, align 8
  %74 = getelementptr inbounds nuw %struct.sctp_ep, ptr %73, i32 0, i32 5
  %75 = getelementptr [256 x i32], ptr %74, i64 0, i64 6
  %76 = load i32, ptr %75, align 4
  %77 = load ptr, ptr %5, align 8
  %78 = getelementptr inbounds nuw %struct.sctp_ep, ptr %77, i32 0, i32 5
  %79 = getelementptr [256 x i32], ptr %78, i64 0, i64 9
  %80 = load i32, ptr %79, align 4
  %81 = call i32 (i32, ptr, ...) @__printf_chk(i32 noundef 2, ptr noundef @.str.9, ptr noundef %31, i32 noundef %35, ptr noundef %36, i32 noundef %40, i32 noundef %44, i32 noundef %48, i32 noundef %52, i32 noundef %56, i32 noundef %60, i32 noundef %64, i32 noundef %68, i32 noundef %72, i32 noundef %76, i32 noundef %80)
  %82 = load ptr, ptr %6, align 8
  call void @wmem_free(ptr noundef null, ptr noundef %82)
  %83 = load ptr, ptr %7, align 8
  call void @wmem_free(ptr noundef null, ptr noundef %83)
  br label %84

84:                                               ; preds = %24
  %85 = load ptr, ptr %5, align 8
  %86 = getelementptr inbounds nuw %struct.sctp_ep, ptr %85, i32 0, i32 0
  %87 = load ptr, ptr %86, align 8
  store ptr %87, ptr %5, align 8
  br label %21, !llvm.loop !12

88:                                               ; preds = %21
  %89 = call i32 (i32, ptr, ...) @__printf_chk(i32 noundef 2, ptr noundef @.str.7)
  call void @llvm.lifetime.end.p0(i64 8, ptr %7) #12
  call void @llvm.lifetime.end.p0(i64 8, ptr %6) #12
  call void @llvm.lifetime.end.p0(i64 8, ptr %5) #12
  call void @llvm.lifetime.end.p0(i64 8, ptr %4) #12
  call void @llvm.lifetime.end.p0(i64 8, ptr %3) #12
  ret void
}