; Function Attrs: null_pointer_is_valid sspstrong uwtable
define internal void @sctpstat_draw(ptr noundef readonly captures(none) %0) #0 {
  %2 = getelementptr inbounds nuw i8, ptr %0, i64 16
  %3 = load ptr, ptr %2, align 8
  %4 = tail call i32 (i32, ptr, ...) @__printf_chk(i32 noundef 2, ptr noundef nonnull @.str.5)
  %5 = getelementptr inbounds nuw i8, ptr %0, i64 8
  %6 = load i32, ptr %5, align 8
  %7 = tail call i32 (i32, ptr, ...) @__printf_chk(i32 noundef 2, ptr noundef nonnull @.str.6, i32 noundef %6)
  %8 = tail call i32 (i32, ptr, ...) @__printf_chk(i32 noundef 2, ptr noundef nonnull @.str.7)
  %9 = tail call i32 (i32, ptr, ...) @__printf_chk(i32 noundef 2, ptr noundef nonnull @.str.8)
  %10 = tail call i32 (i32, ptr, ...) @__printf_chk(i32 noundef 2, ptr noundef nonnull @.str.7)
  %.not24 = icmp eq ptr %3, null
  br i1 %.not24, label %._crit_edge, label %.lr.ph

.lr.ph:                                           ; preds = %1, %.lr.ph
  %.025 = phi ptr [ %42, %.lr.ph ], [ %3, %1 ]
  %11 = getelementptr inbounds nuw i8, ptr %.025, i64 8
  %12 = tail call ptr @address_to_str(ptr noundef null, ptr noundef nonnull %11)
  %13 = getelementptr inbounds nuw i8, ptr %.025, i64 32
  %14 = tail call ptr @address_to_str(ptr noundef null, ptr noundef nonnull %13)
  %15 = getelementptr inbounds nuw i8, ptr %.025, i64 56
  %16 = load i16, ptr %15, align 8
  %17 = zext i16 %16 to i32
  %18 = getelementptr inbounds nuw i8, ptr %.025, i64 58
  %19 = load i16, ptr %18, align 2
  %20 = zext i16 %19 to i32
  %21 = getelementptr inbounds nuw i8, ptr %.025, i64 60
  %22 = load i32, ptr %21, align 4
  %23 = getelementptr i8, ptr %.025, i64 72
  %24 = load i32, ptr %23, align 4
  %25 = getelementptr i8, ptr %.025, i64 76
  %26 = load i32, ptr %25, align 4
  %27 = getelementptr i8, ptr %.025, i64 80
  %28 = load i32, ptr %27, align 4
  %29 = getelementptr i8, ptr %.025, i64 64
  %30 = load i32, ptr %29, align 4
  %31 = getelementptr i8, ptr %.025, i64 68
  %32 = load i32, ptr %31, align 4
  %33 = getelementptr i8, ptr %.025, i64 100
  %34 = load i32, ptr %33, align 4
  %35 = getelementptr i8, ptr %.025, i64 104
  %36 = load i32, ptr %35, align 4
  %37 = getelementptr i8, ptr %.025, i64 84
  %38 = load i32, ptr %37, align 4
  %39 = getelementptr i8, ptr %.025, i64 96
  %40 = load i32, ptr %39, align 4
  %41 = tail call i32 (i32, ptr, ...) @__printf_chk(i32 noundef 2, ptr noundef nonnull @.str.9, ptr noundef %12, i32 noundef %17, ptr noundef %14, i32 noundef %20, i32 noundef %22, i32 noundef %24, i32 noundef %26, i32 noundef %28, i32 noundef %30, i32 noundef %32, i32 noundef %34, i32 noundef %36, i32 noundef %38, i32 noundef %40)
  tail call void @wmem_free(ptr noundef null, ptr noundef %12)
  tail call void @wmem_free(ptr noundef null, ptr noundef %14)
  %42 = load ptr, ptr %.025, align 8
  %.not = icmp eq ptr %42, null
  br i1 %.not, label %._crit_edge, label %.lr.ph, !llvm.loop !10

._crit_edge:                                      ; preds = %.lr.ph, %1
  %43 = tail call i32 (i32, ptr, ...) @__printf_chk(i32 noundef 2, ptr noundef nonnull @.str.7)
  ret void
}